; Function Attrs: nounwind uwtable
define internal void @finish_output_ppm(ptr noundef %0, ptr noundef readonly captures(none) %1) #0 {
  %3 = getelementptr inbounds nuw i8, ptr %1, i64 32
  %4 = load ptr, ptr %3, align 8, !tbaa !60
  %5 = tail call i32 @fflush(ptr noundef %4)
  %6 = load ptr, ptr %3, align 8, !tbaa !60
  %7 = tail call i32 @ferror(ptr noundef %6) #7
  %.not = icmp eq i32 %7, 0
  br i1 %.not, label %12, label %8

8:                                                ; preds = %2
  %9 = load ptr, ptr %0, align 8, !tbaa !31
  %10 = getelementptr inbounds nuw i8, ptr %9, i64 40
  store i32 37, ptr %10, align 8, !tbaa !32
  %11 = load ptr, ptr %9, align 8, !tbaa !36
  tail call void %11(ptr noundef nonnull %0) #7
  br label %12

12:                                               ; preds = %8, %2
  ret void
}